; Function Attrs: nofree nounwind memory(read, inaccessiblemem: none) uwtable
define internal fastcc ptr @find_sample(ptr noundef nonnull readonly captures(none) %0, ptr noundef readonly %1, ptr noundef readonly captures(none) %2, i64 noundef %3, ptr noundef readonly %4) unnamed_addr #4 {
  %6 = getelementptr inbounds nuw i8, ptr %0, i64 16
  %.03563 = load ptr, ptr %6, align 8
  %.not64 = icmp eq ptr %.03563, null
  br i1 %.not64, label %.loopexit, label %.lr.ph68

.lr.ph68:                                         ; preds = %5
  %.not43 = icmp eq ptr %1, null
  %7 = getelementptr inbounds nuw i8, ptr %4, i64 8
  br i1 %.not43, label %.lr.ph68.split.us, label %.lr.ph68.split

.lr.ph68.split.us:                                ; preds = %.lr.ph68, %.critedge.us
  %.03565.us = phi ptr [ %.035.us, %.critedge.us ], [ %.03563, %.lr.ph68 ]
  %8 = getelementptr inbounds nuw i8, ptr %.03565.us, i64 24
  %9 = load i32, ptr %8, align 8
  %10 = zext i32 %9 to i64
  %.not41.us = icmp eq i64 %3, %10
  br i1 %.not41.us, label %11, label %.critedge.us

11:                                               ; preds = %.lr.ph68.split.us
  %12 = getelementptr inbounds nuw i8, ptr %.03565.us, i64 8
  %bcmp.us = tail call i32 @bcmp(ptr noundef nonnull dereferenceable(16) %12, ptr noundef nonnull dereferenceable(16) %2, i64 16)
  %.not42.us = icmp eq i32 %bcmp.us, 0
  br i1 %.not42.us, label %.loopexit, label %.critedge.us

.critedge.us:                                     ; preds = %11, %.lr.ph68.split.us
  %13 = getelementptr inbounds nuw i8, ptr %.03565.us, i64 48
  %.035.us = load ptr, ptr %13, align 8
  %.not.us = icmp eq ptr %.035.us, null
  br i1 %.not.us, label %.loopexit, label %.lr.ph68.split.us

.lr.ph68.split:                                   ; preds = %.lr.ph68
  %.not44 = icmp eq ptr %4, null
  br i1 %.not44, label %.lr.ph68.split.split.us, label %.lr.ph68.split.split

.lr.ph68.split.split.us:                          ; preds = %.lr.ph68.split, %.critedge.us78
  %.03565.us74 = phi ptr [ %.035.us79, %.critedge.us78 ], [ %.03563, %.lr.ph68.split ]
  %14 = getelementptr inbounds nuw i8, ptr %.03565.us74, i64 24
  %15 = load i32, ptr %14, align 8
  %16 = zext i32 %15 to i64
  %.not41.us75 = icmp eq i64 %3, %16
  br i1 %.not41.us75, label %17, label %.critedge.us78

17:                                               ; preds = %.lr.ph68.split.split.us
  %18 = getelementptr inbounds nuw i8, ptr %.03565.us74, i64 8
  %bcmp.us76 = tail call i32 @bcmp(ptr noundef nonnull dereferenceable(16) %18, ptr noundef nonnull dereferenceable(16) %2, i64 16)
  %.not42.us77 = icmp eq i32 %bcmp.us76, 0
  br i1 %.not42.us77, label %.critedge52.us, label %.critedge.us78

.critedge52.us:                                   ; preds = %17
  %19 = load ptr, ptr %.03565.us74, align 8
  %20 = load ptr, ptr %19, align 8
  %.not4960.us = icmp eq ptr %20, null
  br i1 %.not4960.us, label %.critedge.us78, label %.lr.ph62.us

21:                                               ; preds = %.lr.ph62.us
  %22 = add i64 %.161.us, 1
  %23 = getelementptr inbounds ptr, ptr %19, i64 %22
  %24 = load ptr, ptr %23, align 8
  %.not49.us = icmp eq ptr %24, null
  br i1 %.not49.us, label %.critedge.us78, label %.lr.ph62.us

.lr.ph62.us:                                      ; preds = %.critedge52.us, %21
  %25 = phi ptr [ %24, %21 ], [ %20, %.critedge52.us ]
  %.161.us = phi i64 [ %22, %21 ], [ 0, %.critedge52.us ]
  %26 = tail call i32 @strcmp(ptr noundef nonnull dereferenceable(1) %25, ptr noundef nonnull dereferenceable(1) %1) #16
  %.not50.us = icmp eq i32 %26, 0
  br i1 %.not50.us, label %.loopexit, label %21

.critedge.us78:                                   ; preds = %21, %.critedge52.us, %17, %.lr.ph68.split.split.us
  %27 = getelementptr inbounds nuw i8, ptr %.03565.us74, i64 48
  %.035.us79 = load ptr, ptr %27, align 8
  %.not.us80 = icmp eq ptr %.035.us79, null
  br i1 %.not.us80, label %.loopexit, label %.lr.ph68.split.split.us

.lr.ph68.split.split:                             ; preds = %.lr.ph68.split, %.critedge
  %.03565 = phi ptr [ %.035, %.critedge ], [ %.03563, %.lr.ph68.split ]
  %28 = getelementptr inbounds nuw i8, ptr %.03565, i64 24
  %29 = load i32, ptr %28, align 8
  %30 = zext i32 %29 to i64
  %.not41 = icmp eq i64 %3, %30
  br i1 %.not41, label %31, label %.critedge

31:                                               ; preds = %.lr.ph68.split.split
  %32 = getelementptr inbounds nuw i8, ptr %.03565, i64 8
  %bcmp = tail call i32 @bcmp(ptr noundef nonnull dereferenceable(16) %32, ptr noundef nonnull dereferenceable(16) %2, i64 16)
  %.not42 = icmp eq i32 %bcmp, 0
  br i1 %.not42, label %33, label %.critedge

33:                                               ; preds = %31
  %34 = getelementptr inbounds nuw i8, ptr %.03565, i64 32
  %35 = load ptr, ptr %34, align 8
  %.not45 = icmp eq ptr %35, null
  br i1 %.not45, label %.critedge52, label %36

36:                                               ; preds = %33
  %37 = load i64, ptr %4, align 8
  %38 = load i64, ptr %35, align 8
  %39 = icmp eq i64 %37, %38
  br i1 %39, label %.preheader, label %.critedge

.preheader:                                       ; preds = %36
  %.not83 = icmp eq i64 %37, 0
  br i1 %.not83, label %._crit_edge, label %.lr.ph

.lr.ph:                                           ; preds = %.preheader
  %40 = load ptr, ptr %7, align 8
  %41 = getelementptr inbounds nuw i8, ptr %35, i64 8
  %42 = load ptr, ptr %41, align 8
  br label %43

43:                                               ; preds = %.lr.ph, %52
  %.03457 = phi i64 [ 0, %.lr.ph ], [ %53, %52 ]
  %44 = getelementptr inbounds %struct.cli_section_hash, ptr %40, i64 %.03457
  %45 = getelementptr inbounds nuw i8, ptr %44, i64 16
  %46 = load i64, ptr %45, align 8
  %47 = getelementptr inbounds %struct.cli_section_hash, ptr %42, i64 %.03457
  %48 = getelementptr inbounds nuw i8, ptr %47, i64 16
  %49 = load i64, ptr %48, align 8
  %50 = icmp eq i64 %46, %49
  br i1 %50, label %51, label %52

51:                                               ; preds = %43
  %bcmp46 = tail call i32 @bcmp(ptr noundef nonnull dereferenceable(16) %44, ptr noundef nonnull dereferenceable(16) %47, i64 16)
  %.not47 = icmp eq i32 %bcmp46, 0
  br i1 %.not47, label %52, label %._crit_edge

52:                                               ; preds = %43, %51
  %53 = add nuw i64 %.03457, 1
  %exitcond.not = icmp eq i64 %53, %37
  br i1 %exitcond.not, label %.critedge52, label %43

._crit_edge:                                      ; preds = %51, %.preheader
  %.034.lcssa = phi i64 [ 0, %.preheader ], [ %.03457, %51 ]
  %.not53 = icmp eq i64 %.034.lcssa, %37
  br i1 %.not53, label %.critedge52, label %.critedge

.critedge52:                                      ; preds = %52, %33, %._crit_edge
  %54 = load ptr, ptr %.03565, align 8
  %55 = load ptr, ptr %54, align 8
  %.not4960 = icmp eq ptr %55, null
  br i1 %.not4960, label %.critedge, label %.lr.ph62

56:                                               ; preds = %.lr.ph62
  %57 = add i64 %.161, 1
  %58 = getelementptr inbounds ptr, ptr %54, i64 %57
  %59 = load ptr, ptr %58, align 8
  %.not49 = icmp eq ptr %59, null
  br i1 %.not49, label %.critedge, label %.lr.ph62

.lr.ph62:                                         ; preds = %.critedge52, %56
  %60 = phi ptr [ %59, %56 ], [ %55, %.critedge52 ]
  %.161 = phi i64 [ %57, %56 ], [ 0, %.critedge52 ]
  %61 = tail call i32 @strcmp(ptr noundef nonnull dereferenceable(1) %60, ptr noundef nonnull dereferenceable(1) %1) #16
  %.not50 = icmp eq i32 %61, 0
  br i1 %.not50, label %.loopexit, label %56

.critedge:                                        ; preds = %56, %.critedge52, %36, %._crit_edge, %31, %.lr.ph68.split.split
  %62 = getelementptr inbounds nuw i8, ptr %.03565, i64 48
  %.035 = load ptr, ptr %62, align 8
  %.not = icmp eq ptr %.035, null
  br i1 %.not, label %.loopexit, label %.lr.ph68.split.split

.loopexit:                                        ; preds = %.critedge, %.lr.ph62, %.critedge.us78, %.lr.ph62.us, %11, %.critedge.us, %5
  %.03556 = phi ptr [ null, %5 ], [ %.03565.us, %11 ], [ null, %.critedge.us ], [ %.03565.us74, %.lr.ph62.us ], [ null, %.critedge.us78 ], [ %.03565, %.lr.ph62 ], [ null, %.critedge ]
  ret ptr %.03556
}